target datalayout = "e-m:e-p270:32:32-p271:32:32-p272:64:64-i64:64-i128:128-f80:128-n8:16:32:64-S128"
target triple = "x86_64-pc-linux-gnu"

%struct.RString = type { %struct.RBasic, i64, %union.anon }
%struct.RBasic = type { i64, i64 }
%union.anon = type { %struct.anon }
%struct.anon = type { ptr, %union.anon.0 }
%union.anon.0 = type { i64 }
%struct.dump_arg = type { i64, i64, ptr, ptr, ptr, ptr, i64 }
%struct.anon.1 = type { [1 x i8] }
%struct.dump_call_arg = type { i64, ptr, i32 }
%struct.st_table = type { i8, i8, i8, i32, ptr, i64, ptr, i64, i64, ptr }

@rb_eTypeError = external global i64, align 8
@s_encoding_short = internal global i64 0, align 8
@.str.40 = private unnamed_addr constant [28 x i8] c"can't dump anonymous ID %ld\00", align 1

; Function Attrs: inlinehint nounwind sspstrong willreturn memory(read) uwtable
define internal i64 @RB_FL_TEST_RAW(i64 noundef %0, i64 noundef %1) #7 {
  %3 = alloca i64, align 8
  %4 = alloca i64, align 8
  store i64 %0, ptr %3, align 8, !tbaa !7
  store i64 %1, ptr %4, align 8, !tbaa !7
  %5 = load i64, ptr %3, align 8, !tbaa !7
  %6 = inttoptr i64 %5 to ptr
  %7 = getelementptr inbounds nuw %struct.RBasic, ptr %6, i32 0, i32 0
  %8 = load i64, ptr %7, align 8, !tbaa !66
  %9 = load i64, ptr %4, align 8, !tbaa !7
  %10 = and i64 %8, %9
  ret i64 %10
}

; Function Attrs: inlinehint nounwind sspstrong willreturn memory(read) uwtable
define internal zeroext i1 @RB_FL_ANY_RAW(i64 noundef %0, i64 noundef %1) #7 {
  %3 = alloca i64, align 8
  %4 = alloca i64, align 8
  store i64 %0, ptr %3, align 8, !tbaa !7
  store i64 %1, ptr %4, align 8, !tbaa !7
  %5 = load i64, ptr %3, align 8, !tbaa !7
  %6 = load i64, ptr %4, align 8, !tbaa !7
  %7 = call i64 @RB_FL_TEST_RAW(i64 noundef %5, i64 noundef %6) #27
  %8 = icmp ne i64 %7, 0
  ret i1 %8
}

; Function Attrs: inlinehint nounwind sspstrong willreturn memory(read, argmem: readwrite) uwtable
define internal void @rbimpl_rstring_getmem(ptr dead_on_unwind noalias writable sret(%struct.RString) align 8 %0, i64 noundef %1) #15 {
  %3 = alloca i64, align 8
  store i64 %1, ptr %3, align 8, !tbaa !7
  %4 = load i64, ptr %3, align 8, !tbaa !7
  %5 = call zeroext i1 @RB_FL_ANY_RAW(i64 noundef %4, i64 noundef 8192) #27
  br i1 %5, label %6, label %9

6:                                                ; preds = %2
  %7 = load i64, ptr %3, align 8, !tbaa !7
  %8 = inttoptr i64 %7 to ptr
  call void @llvm.memcpy.p0.p0.i64(ptr align 8 %0, ptr align 8 %8, i64 40, i1 false), !tbaa.struct !67
  br label %20

9:                                                ; preds = %2
  %10 = load i64, ptr %3, align 8, !tbaa !7
  %11 = call i64 @RSTRING_LEN(i64 noundef %10) #27
  %12 = getelementptr inbounds nuw %struct.RString, ptr %0, i32 0, i32 1
  store i64 %11, ptr %12, align 8, !tbaa !63
  %13 = load i64, ptr %3, align 8, !tbaa !7
  %14 = inttoptr i64 %13 to ptr
  %15 = getelementptr inbounds nuw %struct.RString, ptr %14, i32 0, i32 2
  %16 = getelementptr inbounds nuw %struct.anon.1, ptr %15, i32 0, i32 0
  %17 = getelementptr inbounds [1 x i8], ptr %16, i64 0, i64 0
  %18 = getelementptr inbounds nuw %struct.RString, ptr %0, i32 0, i32 2
  %19 = getelementptr inbounds nuw %struct.anon, ptr %18, i32 0, i32 0
  store ptr %17, ptr %19, align 8, !tbaa !24
  br label %20

20:                                               ; preds = %9, %6
  ret void
}

; Function Attrs: nounwind sspstrong uwtable
define internal void @w_nbyte(ptr noundef %0, i64 noundef %1, ptr noundef %2) #0 {
  %4 = alloca ptr, align 8
  %5 = alloca i64, align 8
  %6 = alloca ptr, align 8
  %7 = alloca i64, align 8
  store ptr %0, ptr %4, align 8, !tbaa !20
  store i64 %1, ptr %5, align 8, !tbaa !7
  store ptr %2, ptr %6, align 8, !tbaa !39
  call void @llvm.lifetime.start.p0(i64 8, ptr %7) #23
  %8 = load ptr, ptr %6, align 8, !tbaa !39
  %9 = getelementptr inbounds nuw %struct.dump_arg, ptr %8, i32 0, i32 0
  %10 = load i64, ptr %9, align 8, !tbaa !48
  store i64 %10, ptr %7, align 8, !tbaa !7
  %11 = load i64, ptr %7, align 8, !tbaa !7
  %12 = load ptr, ptr %4, align 8, !tbaa !20
  %13 = load i64, ptr %5, align 8, !tbaa !7
  %14 = call i64 @rb_str_cat(i64 noundef %11, ptr noundef %12, i64 noundef %13)
  %15 = load ptr, ptr %6, align 8, !tbaa !39
  %16 = getelementptr inbounds nuw %struct.dump_arg, ptr %15, i32 0, i32 1
  %17 = load i64, ptr %16, align 8, !tbaa !41
  %18 = icmp ne i64 %17, 0
  br i1 %18, label %19, label %31

19:                                               ; preds = %3
  %20 = load i64, ptr %7, align 8, !tbaa !7
  %21 = call i64 @RSTRING_LEN(i64 noundef %20) #27
  %22 = icmp sge i64 %21, 8192
  br i1 %22, label %23, label %31

23:                                               ; preds = %19
  %24 = load ptr, ptr %6, align 8, !tbaa !39
  %25 = getelementptr inbounds nuw %struct.dump_arg, ptr %24, i32 0, i32 1
  %26 = load i64, ptr %25, align 8, !tbaa !41
  %27 = load i64, ptr %7, align 8, !tbaa !7
  %28 = call i64 @rb_io_write(i64 noundef %26, i64 noundef %27)
  %29 = load i64, ptr %7, align 8, !tbaa !7
  %30 = call i64 @rb_str_resize(i64 noundef %29, i64 noundef 0)
  br label %31

31:                                               ; preds = %23, %19, %3
  call void @llvm.lifetime.end.p0(i64 8, ptr %7) #23
  ret void
}

; Function Attrs: nounwind sspstrong uwtable
define internal i32 @w_encoding(i64 noundef %0, ptr noundef %1) #0 {
  %3 = alloca i32, align 4
  %4 = alloca i64, align 8
  %5 = alloca ptr, align 8
  %6 = alloca i32, align 4
  %7 = alloca i32, align 4
  store i64 %0, ptr %4, align 8, !tbaa !7
  store ptr %1, ptr %5, align 8, !tbaa !103
  call void @llvm.lifetime.start.p0(i64 4, ptr %6) #23
  %8 = load ptr, ptr %5, align 8, !tbaa !103
  %9 = getelementptr inbounds nuw %struct.dump_call_arg, ptr %8, i32 0, i32 2
  %10 = load i32, ptr %9, align 8, !tbaa !78
  store i32 %10, ptr %6, align 4, !tbaa !22
  %11 = load i32, ptr %6, align 4, !tbaa !22
  %12 = icmp sge i32 %11, 0
  br i1 %12, label %13, label %16

13:                                               ; preds = %2
  %14 = load i32, ptr %6, align 4, !tbaa !22
  %15 = add i32 %14, 1
  store i32 %15, ptr %6, align 4, !tbaa !22
  br label %16

16:                                               ; preds = %13, %2
  %17 = load i64, ptr %4, align 8, !tbaa !7
  switch i64 %17, label %30 [
    i64 0, label %18
    i64 20, label %18
    i64 4, label %29
  ]

18:                                               ; preds = %16, %16
  %19 = load i64, ptr @s_encoding_short, align 8, !tbaa !7
  %20 = call i64 @rb_id2sym(i64 noundef %19)
  %21 = load ptr, ptr %5, align 8, !tbaa !103
  %22 = getelementptr inbounds nuw %struct.dump_call_arg, ptr %21, i32 0, i32 1
  %23 = load ptr, ptr %22, align 8, !tbaa !80
  call void @w_symbol(i64 noundef %20, ptr noundef %23)
  %24 = load i64, ptr %4, align 8, !tbaa !7
  %25 = load ptr, ptr %5, align 8, !tbaa !103
  %26 = getelementptr inbounds nuw %struct.dump_call_arg, ptr %25, i32 0, i32 1
  %27 = load ptr, ptr %26, align 8, !tbaa !80
  %28 = load i32, ptr %6, align 4, !tbaa !22
  call void @w_object(i64 noundef %24, ptr noundef %27, i32 noundef %28)
  store i32 1, ptr %3, align 4
  store i32 1, ptr %7, align 4
  br label %41

29:                                               ; preds = %16
  store i32 0, ptr %3, align 4
  store i32 1, ptr %7, align 4
  br label %41

30:                                               ; preds = %16
  %31 = call i64 @rb_id_encoding()
  %32 = call i64 @rb_id2sym(i64 noundef %31)
  %33 = load ptr, ptr %5, align 8, !tbaa !103
  %34 = getelementptr inbounds nuw %struct.dump_call_arg, ptr %33, i32 0, i32 1
  %35 = load ptr, ptr %34, align 8, !tbaa !80
  call void @w_symbol(i64 noundef %32, ptr noundef %35)
  %36 = load i64, ptr %4, align 8, !tbaa !7
  %37 = load ptr, ptr %5, align 8, !tbaa !103
  %38 = getelementptr inbounds nuw %struct.dump_call_arg, ptr %37, i32 0, i32 1
  %39 = load ptr, ptr %38, align 8, !tbaa !80
  %40 = load i32, ptr %6, align 4, !tbaa !22
  call void @w_object(i64 noundef %36, ptr noundef %39, i32 noundef %40)
  store i32 1, ptr %3, align 4
  store i32 1, ptr %7, align 4
  br label %41

41:                                               ; preds = %30, %29, %18
  call void @llvm.lifetime.end.p0(i64 4, ptr %6) #23
  %42 = load i32, ptr %3, align 4
  ret i32 %42
}

; Function Attrs: nounwind sspstrong uwtable
define internal void @w_bytes(ptr noundef %0, i64 noundef %1, ptr noundef %2) #0 {
  %4 = alloca ptr, align 8
  %5 = alloca i64, align 8
  %6 = alloca ptr, align 8
  store ptr %0, ptr %4, align 8, !tbaa !20
  store i64 %1, ptr %5, align 8, !tbaa !7
  store ptr %2, ptr %6, align 8, !tbaa !39
  %7 = load i64, ptr %5, align 8, !tbaa !7
  %8 = load ptr, ptr %6, align 8, !tbaa !39
  call void @w_long(i64 noundef %7, ptr noundef %8)
  %9 = load ptr, ptr %4, align 8, !tbaa !20
  %10 = load i64, ptr %5, align 8, !tbaa !7
  %11 = load ptr, ptr %6, align 8, !tbaa !39
  call void @w_nbyte(ptr noundef %9, i64 noundef %10, ptr noundef %11)
  ret void
}

; Function Attrs: inlinehint nounwind sspstrong willreturn memory(read) uwtable
define internal i64 @RSTRING_LEN(i64 noundef %0) #7 {
  %2 = alloca i64, align 8
  store i64 %0, ptr %2, align 8, !tbaa !7
  %3 = load i64, ptr %2, align 8, !tbaa !7
  %4 = inttoptr i64 %3 to ptr
  %5 = getelementptr inbounds nuw %struct.RString, ptr %4, i32 0, i32 1
  %6 = load i64, ptr %5, align 8, !tbaa !63
  ret i64 %6
}

; Function Attrs: inlinehint nounwind sspstrong uwtable
define internal ptr @RSTRING_PTR(i64 noundef %0) #5 {
  %2 = alloca i64, align 8
  %3 = alloca ptr, align 8
  %4 = alloca %struct.RString, align 8
  store i64 %0, ptr %2, align 8, !tbaa !7
  call void @llvm.lifetime.start.p0(i64 8, ptr %3) #23
  %5 = load i64, ptr %2, align 8, !tbaa !7
  call void @rbimpl_rstring_getmem(ptr dead_on_unwind writable sret(%struct.RString) align 8 %4, i64 noundef %5) #29
  %6 = getelementptr inbounds nuw %struct.RString, ptr %4, i32 0, i32 2
  %7 = getelementptr inbounds nuw %struct.anon, ptr %6, i32 0, i32 0
  %8 = load ptr, ptr %7, align 8, !tbaa !24
  store ptr %8, ptr %3, align 8, !tbaa !20
  %9 = load ptr, ptr %3, align 8, !tbaa !20
  call void @llvm.lifetime.end.p0(i64 8, ptr %3) #23
  ret ptr %9
}

; Function Attrs: inlinehint nounwind sspstrong uwtable
define internal zeroext i1 @is_ascii_string(i64 noundef %0) #5 {
  %2 = alloca i64, align 8
  store i64 %0, ptr %2, align 8, !tbaa !7
  %3 = load i64, ptr %2, align 8, !tbaa !7
  %4 = call i32 @rb_enc_str_coderange(i64 noundef %3)
  %5 = icmp eq i32 %4, 1048576
  ret i1 %5
}

; Function Attrs: inlinehint nounwind sspstrong willreturn memory(none) uwtable
define internal zeroext i1 @RB_NIL_P(i64 noundef %0) #8 {
  %2 = alloca i64, align 8
  store i64 %0, ptr %2, align 8, !tbaa !7
  %3 = load i64, ptr %2, align 8, !tbaa !7
  %4 = icmp eq i64 %3, 4
  ret i1 %4
}

; Function Attrs: nounwind sspstrong uwtable
define internal void @w_byte(i8 noundef signext %0, ptr noundef %1) #0 {
  %3 = alloca i8, align 1
  %4 = alloca ptr, align 8
  store i8 %0, ptr %3, align 1, !tbaa !24
  store ptr %1, ptr %4, align 8, !tbaa !39
  %5 = load ptr, ptr %4, align 8, !tbaa !39
  call void @w_nbyte(ptr noundef %3, i64 noundef 1, ptr noundef %5)
  ret void
}

; Function Attrs: nounwind sspstrong uwtable
define internal void @w_symbol(i64 noundef %0, ptr noundef %1) #0 {
  %3 = alloca i64, align 8
  %4 = alloca ptr, align 8
  %5 = alloca i64, align 8
  %6 = alloca i64, align 8
  %7 = alloca i64, align 8
  %8 = alloca %struct.dump_call_arg, align 8
  store i64 %0, ptr %3, align 8, !tbaa !7
  store ptr %1, ptr %4, align 8, !tbaa !39
  call void @llvm.lifetime.start.p0(i64 8, ptr %5) #23
  call void @llvm.lifetime.start.p0(i64 8, ptr %6) #23
  %9 = load ptr, ptr %4, align 8, !tbaa !39
  %10 = getelementptr inbounds nuw %struct.dump_arg, ptr %9, i32 0, i32 2
  %11 = load ptr, ptr %10, align 8, !tbaa !43
  %12 = load i64, ptr %3, align 8, !tbaa !7
  %13 = call i32 @rb_st_lookup(ptr noundef %11, i64 noundef %12, ptr noundef %5)
  %14 = icmp ne i32 %13, 0
  br i1 %14, label %15, label %19

15:                                               ; preds = %2
  %16 = load ptr, ptr %4, align 8, !tbaa !39
  call void @w_byte(i8 noundef signext 59, ptr noundef %16)
  %17 = load i64, ptr %5, align 8, !tbaa !7
  %18 = load ptr, ptr %4, align 8, !tbaa !39
  call void @w_long(i64 noundef %17, ptr noundef %18)
  br label %66

19:                                               ; preds = %2
  call void @llvm.lifetime.start.p0(i64 8, ptr %7) #23
  %20 = load i64, ptr %3, align 8, !tbaa !7
  store i64 %20, ptr %7, align 8, !tbaa !7
  %21 = load i64, ptr %3, align 8, !tbaa !7
  %22 = call i64 @rb_sym2str(i64 noundef %21)
  store i64 %22, ptr %3, align 8, !tbaa !7
  %23 = load i64, ptr %3, align 8, !tbaa !7
  %24 = icmp ne i64 %23, 0
  br i1 %24, label %28, label %25

25:                                               ; preds = %19
  %26 = load i64, ptr @rb_eTypeError, align 8, !tbaa !7
  %27 = load i64, ptr %3, align 8, !tbaa !7
  call void (i64, ptr, ...) @rb_raise(i64 noundef %26, ptr noundef @.str.40, i64 noundef %27) #24
  unreachable

28:                                               ; preds = %19
  %29 = load i64, ptr %3, align 8, !tbaa !7
  %30 = load ptr, ptr %4, align 8, !tbaa !39
  %31 = call i64 @encoding_name(i64 noundef %29, ptr noundef %30)
  store i64 %31, ptr %6, align 8, !tbaa !7
  %32 = load i64, ptr %6, align 8, !tbaa !7
  %33 = call zeroext i1 @RB_NIL_P(i64 noundef %32) #26
  br i1 %33, label %37, label %34

34:                                               ; preds = %28
  %35 = load i64, ptr %3, align 8, !tbaa !7
  %36 = call zeroext i1 @is_ascii_string(i64 noundef %35)
  br i1 %36, label %37, label %38

37:                                               ; preds = %34, %28
  store i64 4, ptr %6, align 8, !tbaa !7
  br label %40

38:                                               ; preds = %34
  %39 = load ptr, ptr %4, align 8, !tbaa !39
  call void @w_byte(i8 noundef signext 73, ptr noundef %39)
  br label %40

40:                                               ; preds = %38, %37
  %41 = load ptr, ptr %4, align 8, !tbaa !39
  call void @w_byte(i8 noundef signext 58, ptr noundef %41)
  %42 = load i64, ptr %3, align 8, !tbaa !7
  %43 = call ptr @RSTRING_PTR(i64 noundef %42)
  %44 = load i64, ptr %3, align 8, !tbaa !7
  %45 = call i64 @RSTRING_LEN(i64 noundef %44) #27
  %46 = load ptr, ptr %4, align 8, !tbaa !39
  call void @w_bytes(ptr noundef %43, i64 noundef %45, ptr noundef %46)
  %47 = load ptr, ptr %4, align 8, !tbaa !39
  %48 = getelementptr inbounds nuw %struct.dump_arg, ptr %47, i32 0, i32 2
  %49 = load ptr, ptr %48, align 8, !tbaa !43
  %50 = load i64, ptr %7, align 8, !tbaa !7
  %51 = load ptr, ptr %4, align 8, !tbaa !39
  %52 = getelementptr inbounds nuw %struct.dump_arg, ptr %51, i32 0, i32 2
  %53 = load ptr, ptr %52, align 8, !tbaa !43
  %54 = getelementptr inbounds nuw %struct.st_table, ptr %53, i32 0, i32 5
  %55 = load i64, ptr %54, align 8, !tbaa !95
  call void @rb_st_add_direct(ptr noundef %49, i64 noundef %50, i64 noundef %55)
  %56 = load i64, ptr %6, align 8, !tbaa !7
  %57 = call zeroext i1 @RB_NIL_P(i64 noundef %56) #26
  br i1 %57, label %65, label %58

58:                                               ; preds = %40
  call void @llvm.lifetime.start.p0(i64 24, ptr %8) #23
  %59 = getelementptr inbounds nuw %struct.dump_call_arg, ptr %8, i32 0, i32 2
  store i32 1, ptr %59, align 8, !tbaa !78
  %60 = load ptr, ptr %4, align 8, !tbaa !39
  %61 = getelementptr inbounds nuw %struct.dump_call_arg, ptr %8, i32 0, i32 1
  store ptr %60, ptr %61, align 8, !tbaa !80
  %62 = load ptr, ptr %4, align 8, !tbaa !39
  call void @w_long(i64 noundef 1, ptr noundef %62)
  %63 = load i64, ptr %6, align 8, !tbaa !7
  %64 = call i32 @w_encoding(i64 noundef %63, ptr noundef %8)
  call void @llvm.lifetime.end.p0(i64 24, ptr %8) #23
  br label %65

65:                                               ; preds = %58, %40
  call void @llvm.lifetime.end.p0(i64 8, ptr %7) #23
  br label %66

66:                                               ; preds = %65, %15
  call void @llvm.lifetime.end.p0(i64 8, ptr %6) #23
  call void @llvm.lifetime.end.p0(i64 8, ptr %5) #23
  ret void
}