; Function Attrs: nounwind sspstrong uwtable
define internal fastcc void @w_symbol(i64 noundef %0, ptr noundef %1) unnamed_addr #0 {
  %3 = alloca [9 x i8], align 1
  %4 = alloca i8, align 1
  %5 = alloca i8, align 1
  %6 = alloca i8, align 1
  %7 = alloca i64, align 8
  call void @llvm.lifetime.start.p0(i64 8, ptr nonnull %7) #22
  %8 = getelementptr inbounds nuw i8, ptr %1, i64 16
  %9 = load ptr, ptr %8, align 8, !tbaa !38
  %10 = call i32 @rb_st_lookup(ptr noundef %9, i64 noundef %0, ptr noundef nonnull %7) #22
  %.not = icmp eq i32 %10, 0
  br i1 %.not, label %25, label %11

11:                                               ; preds = %2
  call void @llvm.lifetime.start.p0(i64 1, ptr nonnull %6)
  store i8 59, ptr %6, align 1, !tbaa !17
  %12 = load i64, ptr %1, align 8, !tbaa !40
  %13 = call i64 @rb_str_cat(i64 noundef %12, ptr noundef nonnull %6, i64 noundef 1) #22
  %14 = getelementptr inbounds nuw i8, ptr %1, i64 8
  %15 = load i64, ptr %14, align 8, !tbaa !36
  %.not.i.i = icmp eq i64 %15, 0
  br i1 %.not.i.i, label %w_byte.exit, label %16

16:                                               ; preds = %11
  %17 = inttoptr i64 %12 to ptr
  %18 = getelementptr inbounds nuw i8, ptr %17, i64 16
  %19 = load i64, ptr %18, align 8, !tbaa !41
  %20 = icmp sgt i64 %19, 8191
  br i1 %20, label %21, label %w_byte.exit

21:                                               ; preds = %16
  %22 = call i64 @rb_io_write(i64 noundef %15, i64 noundef %12) #22
  %23 = call i64 @rb_str_resize(i64 noundef %12, i64 noundef 0) #22
  br label %w_byte.exit

w_byte.exit:                                      ; preds = %11, %16, %21
  call void @llvm.lifetime.end.p0(i64 1, ptr nonnull %6)
  %24 = load i64, ptr %7, align 8, !tbaa !7
  call fastcc void @w_long(i64 noundef %24, ptr noundef nonnull %1)
  br label %w_encoding.exit

25:                                               ; preds = %2
  %26 = call i64 @rb_sym2str(i64 noundef %0) #22
  %.not24 = icmp eq i64 %26, 0
  br i1 %.not24, label %27, label %29

27:                                               ; preds = %25
  %28 = load i64, ptr @rb_eTypeError, align 8, !tbaa !7
  call void (i64, ptr, ...) @rb_raise(i64 noundef %28, ptr noundef nonnull @.str.40, i64 noundef 0) #23
  unreachable

29:                                               ; preds = %25
  %30 = call fastcc i64 @encoding_name(i64 noundef %26, ptr noundef nonnull %1)
  %31 = icmp eq i64 %30, 4
  br i1 %31, label %48, label %32

32:                                               ; preds = %29
  %33 = call i32 @rb_enc_str_coderange(i64 noundef range(i64 1, 0) %26) #22
  %34 = icmp eq i32 %33, 1048576
  br i1 %34, label %48, label %35

35:                                               ; preds = %32
  call void @llvm.lifetime.start.p0(i64 1, ptr nonnull %5)
  store i8 73, ptr %5, align 1, !tbaa !17
  %36 = load i64, ptr %1, align 8, !tbaa !40
  %37 = call i64 @rb_str_cat(i64 noundef %36, ptr noundef nonnull %5, i64 noundef 1) #22
  %38 = getelementptr inbounds nuw i8, ptr %1, i64 8
  %39 = load i64, ptr %38, align 8, !tbaa !36
  %.not.i.i25 = icmp eq i64 %39, 0
  br i1 %.not.i.i25, label %w_byte.exit26, label %40

40:                                               ; preds = %35
  %41 = inttoptr i64 %36 to ptr
  %42 = getelementptr inbounds nuw i8, ptr %41, i64 16
  %43 = load i64, ptr %42, align 8, !tbaa !41
  %44 = icmp sgt i64 %43, 8191
  br i1 %44, label %45, label %w_byte.exit26

45:                                               ; preds = %40
  %46 = call i64 @rb_io_write(i64 noundef %39, i64 noundef %36) #22
  %47 = call i64 @rb_str_resize(i64 noundef %36, i64 noundef 0) #22
  br label %w_byte.exit26

w_byte.exit26:                                    ; preds = %35, %40, %45
  call void @llvm.lifetime.end.p0(i64 1, ptr nonnull %5)
  br label %48

48:                                               ; preds = %29, %32, %w_byte.exit26
  %.0 = phi i64 [ %30, %w_byte.exit26 ], [ 4, %32 ], [ 4, %29 ]
  call void @llvm.lifetime.start.p0(i64 1, ptr nonnull %4)
  store i8 58, ptr %4, align 1, !tbaa !17
  %49 = load i64, ptr %1, align 8, !tbaa !40
  %50 = call i64 @rb_str_cat(i64 noundef %49, ptr noundef nonnull %4, i64 noundef 1) #22
  %51 = getelementptr inbounds nuw i8, ptr %1, i64 8
  %52 = load i64, ptr %51, align 8, !tbaa !36
  %.not.i.i27 = icmp eq i64 %52, 0
  br i1 %.not.i.i27, label %w_byte.exit28, label %53

53:                                               ; preds = %48
  %54 = inttoptr i64 %49 to ptr
  %55 = getelementptr inbounds nuw i8, ptr %54, i64 16
  %56 = load i64, ptr %55, align 8, !tbaa !41
  %57 = icmp sgt i64 %56, 8191
  br i1 %57, label %58, label %w_byte.exit28

58:                                               ; preds = %53
  %59 = call i64 @rb_io_write(i64 noundef %52, i64 noundef %49) #22
  %60 = call i64 @rb_str_resize(i64 noundef %49, i64 noundef 0) #22
  br label %w_byte.exit28

w_byte.exit28:                                    ; preds = %48, %53, %58
  call void @llvm.lifetime.end.p0(i64 1, ptr nonnull %4)
  %61 = inttoptr i64 %26 to ptr
  %62 = load i64, ptr %61, align 8, !tbaa !56, !noalias !107
  %63 = and i64 %62, 8192
  %.not.i.i29 = icmp eq i64 %63, 0
  %64 = getelementptr inbounds nuw i8, ptr %61, i64 24
  br i1 %.not.i.i29, label %RSTRING_PTR.exit, label %65

65:                                               ; preds = %w_byte.exit28
  %.sroa.2.0.copyload.i = load ptr, ptr %64, align 8
  br label %RSTRING_PTR.exit

RSTRING_PTR.exit:                                 ; preds = %w_byte.exit28, %65
  %.sroa.2.0.i = phi ptr [ %.sroa.2.0.copyload.i, %65 ], [ %64, %w_byte.exit28 ]
  %66 = getelementptr inbounds nuw i8, ptr %61, i64 16
  %67 = load i64, ptr %66, align 8, !tbaa !41
  call fastcc void @w_long(i64 noundef %67, ptr noundef nonnull readonly %1)
  %68 = load i64, ptr %1, align 8, !tbaa !40
  %69 = call i64 @rb_str_cat(i64 noundef %68, ptr noundef %.sroa.2.0.i, i64 noundef %67) #22
  %70 = load i64, ptr %51, align 8, !tbaa !36
  %.not.i.i30 = icmp eq i64 %70, 0
  br i1 %.not.i.i30, label %w_bytes.exit, label %71

71:                                               ; preds = %RSTRING_PTR.exit
  %72 = inttoptr i64 %68 to ptr
  %73 = getelementptr inbounds nuw i8, ptr %72, i64 16
  %74 = load i64, ptr %73, align 8, !tbaa !41
  %75 = icmp sgt i64 %74, 8191
  br i1 %75, label %76, label %w_bytes.exit

76:                                               ; preds = %71
  %77 = call i64 @rb_io_write(i64 noundef %70, i64 noundef %68) #22
  %78 = call i64 @rb_str_resize(i64 noundef %68, i64 noundef 0) #22
  br label %w_bytes.exit

w_bytes.exit:                                     ; preds = %RSTRING_PTR.exit, %71, %76
  %79 = load ptr, ptr %8, align 8, !tbaa !38
  %80 = getelementptr inbounds nuw i8, ptr %79, i64 16
  %81 = load i64, ptr %80, align 8, !tbaa !110
  call void @rb_st_add_direct(ptr noundef %79, i64 noundef %0, i64 noundef %81) #22
  %82 = icmp eq i64 %.0, 4
  br i1 %82, label %w_encoding.exit, label %83

83:                                               ; preds = %w_bytes.exit
  call void @llvm.lifetime.start.p0(i64 9, ptr nonnull %3) #22
  store i8 6, ptr %3, align 1, !tbaa !17
  %84 = load i64, ptr %1, align 8, !tbaa !40
  %85 = call i64 @rb_str_cat(i64 noundef %84, ptr noundef nonnull %3, i64 noundef 1) #22
  %86 = load i64, ptr %51, align 8, !tbaa !36
  %.not.i.i31 = icmp eq i64 %86, 0
  br i1 %.not.i.i31, label %w_long.exit, label %87

87:                                               ; preds = %83
  %88 = inttoptr i64 %84 to ptr
  %89 = getelementptr inbounds nuw i8, ptr %88, i64 16
  %90 = load i64, ptr %89, align 8, !tbaa !41
  %91 = icmp sgt i64 %90, 8191
  br i1 %91, label %92, label %w_long.exit

92:                                               ; preds = %87
  %93 = call i64 @rb_io_write(i64 noundef %86, i64 noundef %84) #22
  %94 = call i64 @rb_str_resize(i64 noundef %84, i64 noundef 0) #22
  br label %w_long.exit

w_long.exit:                                      ; preds = %83, %87, %92
  call void @llvm.lifetime.end.p0(i64 9, ptr nonnull %3) #22
  switch i64 %.0, label %97 [
    i64 0, label %95
    i64 20, label %95
  ]

95:                                               ; preds = %w_long.exit, %w_long.exit
  %96 = load i64, ptr @s_encoding_short, align 8, !tbaa !7
  br label %.sink.split.i

97:                                               ; preds = %w_long.exit
  %98 = call i64 @rb_id_encoding() #22
  br label %.sink.split.i

.sink.split.i:                                    ; preds = %97, %95
  %.sink17.i = phi i64 [ %98, %97 ], [ %96, %95 ]
  %99 = call i64 @rb_id2sym(i64 noundef %.sink17.i) #22
  call fastcc void @w_symbol(i64 noundef %99, ptr noundef nonnull %1)
  call fastcc void @w_object(i64 noundef %.0, ptr noundef nonnull %1, i32 noundef 2)
  br label %w_encoding.exit

w_encoding.exit:                                  ; preds = %.sink.split.i, %w_bytes.exit, %w_byte.exit
  call void @llvm.lifetime.end.p0(i64 8, ptr nonnull %7) #22
  ret void
}